target datalayout = "e-m:e-p270:32:32-p271:32:32-p272:64:64-i64:64-i128:128-f80:128-n8:16:32:64-S128"
target triple = "x86_64-pc-linux-gnu"

%struct.Elf64_Ehdr = type { [16 x i8], i16, i16, i32, i64, i64, i64, i32, i16, i16, i16, i16, i16, i16 }

; Function Attrs: mustprogress nounwind uwtable
define hidden noundef zeroext i1 @_ZN7ElfFile11is_elf_fileER10Elf64_Ehdr(ptr noundef nonnull align 8 dereferenceable(64) %0) #1 align 2 {
  %2 = alloca ptr, align 8
  store ptr %0, ptr %2, align 8
  %3 = load ptr, ptr %2, align 8
  %4 = getelementptr inbounds %struct.Elf64_Ehdr, ptr %3, i32 0, i32 0
  %5 = getelementptr inbounds [16 x i8], ptr %4, i64 0, i64 0
  %6 = load i8, ptr %5, align 8
  %7 = zext i8 %6 to i32
  %8 = icmp eq i32 127, %7
  br i1 %8, label %9, label %44

9:                                                ; preds = %1
  %10 = load ptr, ptr %2, align 8
  %11 = getelementptr inbounds %struct.Elf64_Ehdr, ptr %10, i32 0, i32 0
  %12 = getelementptr inbounds [16 x i8], ptr %11, i64 0, i64 1
  %13 = load i8, ptr %12, align 1
  %14 = zext i8 %13 to i32
  %15 = icmp eq i32 69, %14
  br i1 %15, label %16, label %44

16:                                               ; preds = %9
  %17 = load ptr, ptr %2, align 8
  %18 = getelementptr inbounds %struct.Elf64_Ehdr, ptr %17, i32 0, i32 0
  %19 = getelementptr inbounds [16 x i8], ptr %18, i64 0, i64 2
  %20 = load i8, ptr %19, align 2
  %21 = zext i8 %20 to i32
  %22 = icmp eq i32 76, %21
  br i1 %22, label %23, label %44

23:                                               ; preds = %16
  %24 = load ptr, ptr %2, align 8
  %25 = getelementptr inbounds %struct.Elf64_Ehdr, ptr %24, i32 0, i32 0
  %26 = getelementptr inbounds [16 x i8], ptr %25, i64 0, i64 3
  %27 = load i8, ptr %26, align 1
  %28 = zext i8 %27 to i32
  %29 = icmp eq i32 70, %28
  br i1 %29, label %30, label %44

30:                                               ; preds = %23
  %31 = load ptr, ptr %2, align 8
  %32 = getelementptr inbounds %struct.Elf64_Ehdr, ptr %31, i32 0, i32 0
  %33 = getelementptr inbounds [16 x i8], ptr %32, i64 0, i64 4
  %34 = load i8, ptr %33, align 4
  %35 = zext i8 %34 to i32
  %36 = icmp ne i32 0, %35
  br i1 %36, label %37, label %44

37:                                               ; preds = %30
  %38 = load ptr, ptr %2, align 8
  %39 = getelementptr inbounds %struct.Elf64_Ehdr, ptr %38, i32 0, i32 0
  %40 = getelementptr inbounds [16 x i8], ptr %39, i64 0, i64 5
  %41 = load i8, ptr %40, align 1
  %42 = zext i8 %41 to i32
  %43 = icmp ne i32 0, %42
  br label %44

44:                                               ; preds = %37, %30, %23, %16, %9, %1
  %45 = phi i1 [ false, %30 ], [ false, %23 ], [ false, %16 ], [ false, %9 ], [ false, %1 ], [ %43, %37 ]
  ret i1 %45
}