; Function Attrs: mustprogress nofree norecurse nosync nounwind willreturn memory(argmem: read) uwtable
define hidden noundef zeroext i1 @_ZN7ElfFile11is_elf_fileER10Elf64_Ehdr(ptr nocapture noundef nonnull readonly align 8 dereferenceable(64) %0) local_unnamed_addr #7 align 2 {
  %2 = load <4 x i8>, ptr %0, align 8
  %.fr = freeze <4 x i8> %2
  %3 = getelementptr inbounds i8, ptr %0, i64 4
  %4 = load i8, ptr %3, align 4
  %.not = icmp eq i8 %4, 0
  %.fr.scalar = bitcast <4 x i8> %.fr to i32
  %5 = icmp ne i32 %.fr.scalar, 1179403647
  %op.rdx = select i1 %5, i1 true, i1 %.not
  br i1 %op.rdx, label %10, label %6

6:                                                ; preds = %1
  %7 = getelementptr inbounds i8, ptr %0, i64 5
  %8 = load i8, ptr %7, align 1
  %9 = icmp ne i8 %8, 0
  br label %10

10:                                               ; preds = %6, %1
  %11 = phi i1 [ false, %1 ], [ %9, %6 ]
  ret i1 %11
}